target datalayout = "e-m:e-p270:32:32-p271:32:32-p272:64:64-i64:64-i128:128-f80:128-n8:16:32:64-S128"
target triple = "x86_64-pc-linux-gnu"

%struct.curl_mimepart = type { ptr, ptr, i32, i32, ptr, ptr, ptr, ptr, ptr, ptr, ptr, ptr, ptr, ptr, ptr, i64, %struct.mime_state, ptr, %struct.mime_encoder_state, i64 }
%struct.mime_state = type { i32, ptr, i64 }
%struct.mime_encoder_state = type { i64, i64, i64, [256 x i8] }
%struct.bufq = type { ptr, ptr, ptr, ptr, i64, i64, i64, i32 }
%struct.Curl_creader = type { ptr, ptr, ptr, i32 }
%struct.cr_mime_ctx = type { %struct.Curl_creader, ptr, i64, i64, i32, %struct.bufq, i8 }

; Function Attrs: nounwind uwtable
define internal zeroext i1 @cr_mime_is_paused(ptr noundef %0, ptr noundef %1) #0 {
  %3 = alloca ptr, align 8
  %4 = alloca ptr, align 8
  %5 = alloca ptr, align 8
  store ptr %0, ptr %3, align 8, !tbaa !43
  store ptr %1, ptr %4, align 8, !tbaa !93
  call void @llvm.lifetime.start.p0(i64 8, ptr %5) #8
  %6 = load ptr, ptr %4, align 8, !tbaa !93
  %7 = getelementptr inbounds nuw %struct.Curl_creader, ptr %6, i32 0, i32 2
  %8 = load ptr, ptr %7, align 8, !tbaa !95
  store ptr %8, ptr %5, align 8, !tbaa !98
  %9 = load ptr, ptr %5, align 8, !tbaa !98
  %10 = getelementptr inbounds nuw %struct.cr_mime_ctx, ptr %9, i32 0, i32 1
  %11 = load ptr, ptr %10, align 8, !tbaa !100
  %12 = icmp ne ptr %11, null
  br i1 %12, label %13, label %20

13:                                               ; preds = %2
  %14 = load ptr, ptr %5, align 8, !tbaa !98
  %15 = getelementptr inbounds nuw %struct.cr_mime_ctx, ptr %14, i32 0, i32 1
  %16 = load ptr, ptr %15, align 8, !tbaa !100
  %17 = getelementptr inbounds nuw %struct.curl_mimepart, ptr %16, i32 0, i32 19
  %18 = load i64, ptr %17, align 8, !tbaa !34
  %19 = icmp eq i64 %18, 268435457
  br label %20

20:                                               ; preds = %13, %2
  %21 = phi i1 [ false, %2 ], [ %19, %13 ]
  call void @llvm.lifetime.end.p0(i64 8, ptr %5) #8
  ret i1 %21
}